target datalayout = "e-m:e-p270:32:32-p271:32:32-p272:64:64-i64:64-i128:128-f80:128-n8:16:32:64-S128"
target triple = "x86_64-pc-linux-gnu"

%struct._zend_refcounted_h = type { i32, %union.anon }
%union.anon = type { i32 }
%struct._zval_struct = type { %union._zend_value, %union.anon.3, %union.anon.6 }
%union._zend_value = type { i64 }
%union.anon.3 = type { i32 }
%union.anon.6 = type { i32 }
%struct._php_stream = type { ptr, ptr, %struct._php_stream_filter_chain, %struct._php_stream_filter_chain, ptr, ptr, %struct._zval_struct, i16, [16 x i8], i32, ptr, ptr, ptr, ptr, i64, ptr, i64, i64, i64, i64, ptr }
%struct._php_stream_filter_chain = type { ptr, ptr, ptr }
%struct._zend_string = type { %struct._zend_refcounted_h, i64, i64, [1 x i8] }

; Function Attrs: nounwind uwtable
define ptr @php_stream_locate_eol(ptr noundef %0, ptr noundef %1) #0 {
  %3 = alloca ptr, align 8
  %4 = alloca ptr, align 8
  %5 = alloca i64, align 8
  %6 = alloca ptr, align 8
  %7 = alloca ptr, align 8
  %8 = alloca ptr, align 8
  %9 = alloca ptr, align 8
  store ptr %0, ptr %3, align 8
  store ptr %1, ptr %4, align 8
  store ptr null, ptr %8, align 8
  %10 = load ptr, ptr %4, align 8
  %11 = icmp ne ptr %10, null
  br i1 %11, label %27, label %12

12:                                               ; preds = %2
  %13 = load ptr, ptr %3, align 8
  %14 = getelementptr inbounds %struct._php_stream, ptr %13, i32 0, i32 15
  %15 = load ptr, ptr %14, align 8
  %16 = load ptr, ptr %3, align 8
  %17 = getelementptr inbounds %struct._php_stream, ptr %16, i32 0, i32 17
  %18 = load i64, ptr %17, align 8
  %19 = getelementptr inbounds i8, ptr %15, i64 %18
  store ptr %19, ptr %9, align 8
  %20 = load ptr, ptr %3, align 8
  %21 = getelementptr inbounds %struct._php_stream, ptr %20, i32 0, i32 18
  %22 = load i64, ptr %21, align 8
  %23 = load ptr, ptr %3, align 8
  %24 = getelementptr inbounds %struct._php_stream, ptr %23, i32 0, i32 17
  %25 = load i64, ptr %24, align 8
  %26 = sub nsw i64 %22, %25
  store i64 %26, ptr %5, align 8
  br label %34

27:                                               ; preds = %2
  %28 = load ptr, ptr %4, align 8
  %29 = getelementptr inbounds %struct._zend_string, ptr %28, i32 0, i32 3
  %30 = getelementptr inbounds [1 x i8], ptr %29, i64 0, i64 0
  store ptr %30, ptr %9, align 8
  %31 = load ptr, ptr %4, align 8
  %32 = getelementptr inbounds %struct._zend_string, ptr %31, i32 0, i32 2
  %33 = load i64, ptr %32, align 8
  store i64 %33, ptr %5, align 8
  br label %34

34:                                               ; preds = %27, %12
  %35 = load ptr, ptr %3, align 8
  %36 = getelementptr inbounds %struct._php_stream, ptr %35, i32 0, i32 9
  %37 = load i32, ptr %36, align 4
  %38 = and i32 %37, 4
  %39 = icmp ne i32 %38, 0
  br i1 %39, label %40, label %93

40:                                               ; preds = %34
  %41 = load ptr, ptr %9, align 8
  %42 = load i64, ptr %5, align 8
  %43 = call ptr @memchr(ptr noundef %41, i32 noundef 13, i64 noundef %42) #13
  store ptr %43, ptr %6, align 8
  %44 = load ptr, ptr %9, align 8
  %45 = load i64, ptr %5, align 8
  %46 = call ptr @memchr(ptr noundef %44, i32 noundef 10, i64 noundef %45) #13
  store ptr %46, ptr %7, align 8
  %47 = load ptr, ptr %6, align 8
  %48 = icmp ne ptr %47, null
  br i1 %48, label %49, label %71

49:                                               ; preds = %40
  %50 = load ptr, ptr %7, align 8
  %51 = load ptr, ptr %6, align 8
  %52 = getelementptr inbounds i8, ptr %51, i64 1
  %53 = icmp ne ptr %50, %52
  br i1 %53, label %54, label %71

54:                                               ; preds = %49
  %55 = load ptr, ptr %7, align 8
  %56 = icmp ne ptr %55, null
  br i1 %56, label %57, label %61

57:                                               ; preds = %54
  %58 = load ptr, ptr %7, align 8
  %59 = load ptr, ptr %6, align 8
  %60 = icmp ult ptr %58, %59
  br i1 %60, label %71, label %61

61:                                               ; preds = %57, %54
  %62 = load ptr, ptr %3, align 8
  %63 = getelementptr inbounds %struct._php_stream, ptr %62, i32 0, i32 9
  %64 = load i32, ptr %63, align 4
  %65 = xor i32 %64, 4
  store i32 %65, ptr %63, align 4
  %66 = load ptr, ptr %3, align 8
  %67 = getelementptr inbounds %struct._php_stream, ptr %66, i32 0, i32 9
  %68 = load i32, ptr %67, align 4
  %69 = or i32 %68, 8
  store i32 %69, ptr %67, align 4
  %70 = load ptr, ptr %6, align 8
  store ptr %70, ptr %8, align 8
  br label %92

71:                                               ; preds = %57, %49, %40
  %72 = load ptr, ptr %6, align 8
  %73 = icmp ne ptr %72, null
  br i1 %73, label %74, label %82

74:                                               ; preds = %71
  %75 = load ptr, ptr %7, align 8
  %76 = icmp ne ptr %75, null
  br i1 %76, label %77, label %82

77:                                               ; preds = %74
  %78 = load ptr, ptr %6, align 8
  %79 = load ptr, ptr %7, align 8
  %80 = getelementptr inbounds i8, ptr %79, i64 -1
  %81 = icmp eq ptr %78, %80
  br i1 %81, label %85, label %82

82:                                               ; preds = %77, %74, %71
  %83 = load ptr, ptr %7, align 8
  %84 = icmp ne ptr %83, null
  br i1 %84, label %85, label %91

85:                                               ; preds = %82, %77
  %86 = load ptr, ptr %3, align 8
  %87 = getelementptr inbounds %struct._php_stream, ptr %86, i32 0, i32 9
  %88 = load i32, ptr %87, align 4
  %89 = xor i32 %88, 4
  store i32 %89, ptr %87, align 4
  %90 = load ptr, ptr %7, align 8
  store ptr %90, ptr %8, align 8
  br label %91

91:                                               ; preds = %85, %82
  br label %92

92:                                               ; preds = %91, %61
  br label %108

93:                                               ; preds = %34
  %94 = load ptr, ptr %3, align 8
  %95 = getelementptr inbounds %struct._php_stream, ptr %94, i32 0, i32 9
  %96 = load i32, ptr %95, align 4
  %97 = and i32 %96, 8
  %98 = icmp ne i32 %97, 0
  br i1 %98, label %99, label %103

99:                                               ; preds = %93
  %100 = load ptr, ptr %9, align 8
  %101 = load i64, ptr %5, align 8
  %102 = call ptr @memchr(ptr noundef %100, i32 noundef 13, i64 noundef %101) #13
  store ptr %102, ptr %8, align 8
  br label %107

103:                                              ; preds = %93
  %104 = load ptr, ptr %9, align 8
  %105 = load i64, ptr %5, align 8
  %106 = call ptr @memchr(ptr noundef %104, i32 noundef 10, i64 noundef %105) #13
  store ptr %106, ptr %8, align 8
  br label %107

107:                                              ; preds = %103, %99
  br label %108

108:                                              ; preds = %107, %92
  %109 = load ptr, ptr %8, align 8
  ret ptr %109
}