; Function Attrs: mustprogress nofree nounwind willreturn memory(read, argmem: readwrite, inaccessiblemem: none) uwtable
define ptr @php_stream_locate_eol(ptr nocapture noundef %0, ptr noundef readonly %1) local_unnamed_addr #14 {
  %.not = icmp eq ptr %1, null
  br i1 %.not, label %3, label %12

3:                                                ; preds = %2
  %4 = getelementptr inbounds i8, ptr %0, i64 160
  %5 = load ptr, ptr %4, align 8
  %6 = getelementptr inbounds i8, ptr %0, i64 176
  %7 = load i64, ptr %6, align 8
  %8 = getelementptr inbounds i8, ptr %5, i64 %7
  %9 = getelementptr inbounds i8, ptr %0, i64 184
  %10 = load i64, ptr %9, align 8
  %11 = sub nsw i64 %10, %7
  br label %16

12:                                               ; preds = %2
  %13 = getelementptr inbounds i8, ptr %1, i64 24
  %14 = getelementptr inbounds i8, ptr %1, i64 16
  %15 = load i64, ptr %14, align 8
  br label %16

16:                                               ; preds = %12, %3
  %.037 = phi i64 [ %15, %12 ], [ %11, %3 ]
  %.0 = phi ptr [ %13, %12 ], [ %8, %3 ]
  %17 = getelementptr inbounds i8, ptr %0, i64 116
  %18 = load i32, ptr %17, align 4
  %19 = and i32 %18, 4
  %.not41 = icmp eq i32 %19, 0
  br i1 %.not41, label %31, label %20

20:                                               ; preds = %16
  %21 = tail call ptr @memchr(ptr noundef %.0, i32 noundef 13, i64 noundef %.037) #28
  %22 = tail call ptr @memchr(ptr noundef %.0, i32 noundef 10, i64 noundef %.037) #28
  %.not49 = icmp eq ptr %21, null
  %23 = getelementptr inbounds i8, ptr %21, i64 1
  %.not43 = icmp eq ptr %22, %23
  %or.cond46 = select i1 %.not49, i1 true, i1 %.not43
  br i1 %or.cond46, label %29, label %24

24:                                               ; preds = %20
  %.not44 = icmp ne ptr %22, null
  %25 = icmp ult ptr %22, %21
  %or.cond47 = and i1 %.not44, %25
  br i1 %or.cond47, label %.thread, label %26

26:                                               ; preds = %24
  %27 = and i32 %18, -13
  %28 = or disjoint i32 %27, 8
  store i32 %28, ptr %17, align 4
  br label %37

29:                                               ; preds = %20
  %.not50 = icmp eq ptr %22, null
  br i1 %.not50, label %37, label %.thread

.thread:                                          ; preds = %24, %29
  %30 = and i32 %18, -5
  store i32 %30, ptr %17, align 4
  br label %37

31:                                               ; preds = %16
  %32 = and i32 %18, 8
  %.not42 = icmp eq i32 %32, 0
  br i1 %.not42, label %35, label %33

33:                                               ; preds = %31
  %34 = tail call ptr @memchr(ptr noundef %.0, i32 noundef 13, i64 noundef %.037) #28
  br label %37

35:                                               ; preds = %31
  %36 = tail call ptr @memchr(ptr noundef %.0, i32 noundef 10, i64 noundef %.037) #28
  br label %37

37:                                               ; preds = %29, %33, %35, %26, %.thread
  %.036 = phi ptr [ %22, %.thread ], [ %21, %26 ], [ %34, %33 ], [ %36, %35 ], [ null, %29 ]
  ret ptr %.036
}